target datalayout = "e-m:e-p270:32:32-p271:32:32-p272:64:64-i64:64-i128:128-f80:128-n8:16:32:64-S128"
target triple = "x86_64-pc-linux-gnu"

%class.JavaValue = type { i8, %"union.JavaValue::JavaCallValue" }
%"union.JavaValue::JavaCallValue" = type { double }
%"class.JfrJavaArguments::Parameters" = type { [16 x %class.JavaValue], i32, i32 }

; Function Attrs: mustprogress nounwind uwtable
define hidden void @_ZN16JfrJavaArguments10Parameters4pushERK9JavaValue(ptr noundef nonnull align 8 dereferenceable(264) %0, ptr noundef nonnull align 8 dereferenceable(16) %1) #1 align 2 {
  %3 = alloca ptr, align 8
  %4 = alloca ptr, align 8
  store ptr %0, ptr %3, align 8
  store ptr %1, ptr %4, align 8
  %5 = load ptr, ptr %3, align 8
  %6 = load ptr, ptr %4, align 8
  %7 = getelementptr inbounds %"class.JfrJavaArguments::Parameters", ptr %5, i32 0, i32 0
  %8 = getelementptr inbounds %"class.JfrJavaArguments::Parameters", ptr %5, i32 0, i32 1
  %9 = load i32, ptr %8, align 8
  %10 = add nsw i32 %9, 1
  store i32 %10, ptr %8, align 8
  %11 = sext i32 %9 to i64
  %12 = getelementptr inbounds [16 x %class.JavaValue], ptr %7, i64 0, i64 %11
  call void @llvm.memcpy.p0.p0.i64(ptr align 8 %12, ptr align 8 %6, i64 16, i1 false)
  %13 = getelementptr inbounds %"class.JfrJavaArguments::Parameters", ptr %5, i32 0, i32 2
  %14 = load i32, ptr %13, align 4
  %15 = add nsw i32 %14, 1
  store i32 %15, ptr %13, align 4
  ret void
}

; Function Attrs: mustprogress nounwind uwtable
define linkonce_odr hidden void @_ZN9JavaValue7set_oopEP7oopDesc(ptr noundef nonnull align 8 dereferenceable(16) %0, ptr noundef %1) #1 comdat align 2 {
  %3 = alloca ptr, align 8
  %4 = alloca ptr, align 8
  store ptr %0, ptr %3, align 8
  store ptr %1, ptr %4, align 8
  %5 = load ptr, ptr %3, align 8
  %6 = load ptr, ptr %4, align 8
  %7 = getelementptr inbounds %class.JavaValue, ptr %5, i32 0, i32 1
  store ptr %6, ptr %7, align 8
  ret void
}

; Function Attrs: mustprogress nounwind uwtable
define linkonce_odr hidden void @_ZN9JavaValueC2E9BasicType(ptr noundef nonnull align 8 dereferenceable(16) %0, i8 noundef zeroext %1) unnamed_addr #1 comdat align 2 {
  %3 = alloca ptr, align 8
  %4 = alloca i8, align 1
  store ptr %0, ptr %3, align 8
  store i8 %1, ptr %4, align 1
  %5 = load ptr, ptr %3, align 8
  %6 = load i8, ptr %4, align 1
  %7 = getelementptr inbounds %class.JavaValue, ptr %5, i32 0, i32 0
  store i8 %6, ptr %7, align 8
  ret void
}

; Function Attrs: mustprogress nounwind uwtable
define hidden void @_ZN16JfrJavaArguments10Parameters8push_oopEP7oopDesc(ptr noundef nonnull align 8 dereferenceable(264) %0, ptr noundef %1) #1 align 2 {
  %3 = alloca ptr, align 8
  %4 = alloca ptr, align 8
  %5 = alloca %class.JavaValue, align 8
  store ptr %0, ptr %3, align 8
  store ptr %1, ptr %4, align 8
  %6 = load ptr, ptr %3, align 8
  call void @_ZN9JavaValueC2E9BasicType(ptr noundef nonnull align 8 dereferenceable(16) %5, i8 noundef zeroext 12)
  %7 = load ptr, ptr %4, align 8
  call void @_ZN9JavaValue7set_oopEP7oopDesc(ptr noundef nonnull align 8 dereferenceable(16) %5, ptr noundef %7)
  call void @_ZN16JfrJavaArguments10Parameters4pushERK9JavaValue(ptr noundef nonnull align 8 dereferenceable(264) %6, ptr noundef nonnull align 8 dereferenceable(16) %5)
  ret void
}